target datalayout = "e-m:e-p270:32:32-p271:32:32-p272:64:64-i64:64-i128:128-f80:128-n8:16:32:64-S128"
target triple = "x86_64-pc-linux-gnu"

%struct.H5G_name_t = type { ptr, ptr, i32 }
%struct.H5G_loc_t = type { ptr, ptr }
%struct.H5O_loc_t = type { ptr, i64, i8 }

@.str.1 = private unnamed_addr constant [101 x i8] c"generated/home/dtcxzyw/WorkSpace/Projects/compilers/llvm-opt-benchmark/bench/hdf5/hdf5/src/H5Gname.c\00", align 1
@H5E_SYM_g = external global i64, align 8
@__func__.H5G_get_name = private unnamed_addr constant [13 x i8] c"H5G_get_name\00", align 1
@H5E_CANTGET_g = external global i64, align 8
@.str.4 = private unnamed_addr constant [21 x i8] c"can't determine name\00", align 1

; Function Attrs: nounwind uwtable
define i32 @H5G_get_name(ptr noundef %0, ptr noundef %1, i64 noundef %2, ptr noundef %3, ptr noundef %4) #0 {
  %6 = alloca ptr, align 8
  %7 = alloca ptr, align 8
  %8 = alloca i64, align 8
  %9 = alloca ptr, align 8
  %10 = alloca ptr, align 8
  %11 = alloca i32, align 4
  %12 = alloca i8, align 1
  %13 = alloca i64, align 8
  store ptr %0, ptr %6, align 8
  store ptr %1, ptr %7, align 8
  store i64 %2, ptr %8, align 8
  store ptr %3, ptr %9, align 8
  store ptr %4, ptr %10, align 8
  store i32 0, ptr %11, align 4
  store i8 0, ptr %12, align 1
  %14 = load ptr, ptr %6, align 8
  %15 = getelementptr inbounds %struct.H5G_loc_t, ptr %14, i32 0, i32 1
  %16 = load ptr, ptr %15, align 8
  %17 = getelementptr inbounds %struct.H5G_name_t, ptr %16, i32 0, i32 1
  %18 = load ptr, ptr %17, align 8
  %19 = icmp ne ptr %18, null
  br i1 %19, label %20, label %77

20:                                               ; preds = %5
  %21 = load ptr, ptr %6, align 8
  %22 = getelementptr inbounds %struct.H5G_loc_t, ptr %21, i32 0, i32 1
  %23 = load ptr, ptr %22, align 8
  %24 = getelementptr inbounds %struct.H5G_name_t, ptr %23, i32 0, i32 2
  %25 = load i32, ptr %24, align 8
  %26 = icmp eq i32 %25, 0
  br i1 %26, label %27, label %77

27:                                               ; preds = %20
  %28 = load ptr, ptr %6, align 8
  %29 = getelementptr inbounds %struct.H5G_loc_t, ptr %28, i32 0, i32 1
  %30 = load ptr, ptr %29, align 8
  %31 = getelementptr inbounds %struct.H5G_name_t, ptr %30, i32 0, i32 1
  %32 = load ptr, ptr %31, align 8
  %33 = call i64 @H5RS_len(ptr noundef %32)
  store i64 %33, ptr %13, align 8
  %34 = load ptr, ptr %7, align 8
  %35 = icmp ne ptr %34, null
  br i1 %35, label %36, label %65

36:                                               ; preds = %27
  %37 = load ptr, ptr %7, align 8
  %38 = load ptr, ptr %6, align 8
  %39 = getelementptr inbounds %struct.H5G_loc_t, ptr %38, i32 0, i32 1
  %40 = load ptr, ptr %39, align 8
  %41 = getelementptr inbounds %struct.H5G_name_t, ptr %40, i32 0, i32 1
  %42 = load ptr, ptr %41, align 8
  %43 = call ptr @H5RS_get_str(ptr noundef %42)
  %44 = load i64, ptr %13, align 8
  %45 = add i64 %44, 1
  %46 = load i64, ptr %8, align 8
  %47 = icmp ult i64 %45, %46
  br i1 %47, label %48, label %51

48:                                               ; preds = %36
  %49 = load i64, ptr %13, align 8
  %50 = add i64 %49, 1
  br label %53

51:                                               ; preds = %36
  %52 = load i64, ptr %8, align 8
  br label %53

53:                                               ; preds = %51, %48
  %54 = phi i64 [ %50, %48 ], [ %52, %51 ]
  %55 = call ptr @strncpy(ptr noundef %37, ptr noundef %43, i64 noundef %54) #7
  %56 = load i64, ptr %13, align 8
  %57 = load i64, ptr %8, align 8
  %58 = icmp uge i64 %56, %57
  br i1 %58, label %59, label %64

59:                                               ; preds = %53
  %60 = load ptr, ptr %7, align 8
  %61 = load i64, ptr %8, align 8
  %62 = sub i64 %61, 1
  %63 = getelementptr inbounds i8, ptr %60, i64 %62
  store i8 0, ptr %63, align 1
  br label %64

64:                                               ; preds = %59, %53
  br label %65

65:                                               ; preds = %64, %27
  %66 = load ptr, ptr %9, align 8
  %67 = icmp ne ptr %66, null
  br i1 %67, label %68, label %71

68:                                               ; preds = %65
  %69 = load i64, ptr %13, align 8
  %70 = load ptr, ptr %9, align 8
  store i64 %69, ptr %70, align 8
  br label %71

71:                                               ; preds = %68, %65
  %72 = load ptr, ptr %10, align 8
  %73 = icmp ne ptr %72, null
  br i1 %73, label %74, label %76

74:                                               ; preds = %71
  %75 = load ptr, ptr %10, align 8
  store i8 1, ptr %75, align 1
  br label %76

76:                                               ; preds = %74, %71
  br label %120

77:                                               ; preds = %20, %5
  %78 = load ptr, ptr %6, align 8
  %79 = getelementptr inbounds %struct.H5G_loc_t, ptr %78, i32 0, i32 1
  %80 = load ptr, ptr %79, align 8
  %81 = getelementptr inbounds %struct.H5G_name_t, ptr %80, i32 0, i32 2
  %82 = load i32, ptr %81, align 8
  %83 = icmp ne i32 %82, 0
  br i1 %83, label %119, label %84

84:                                               ; preds = %77
  %85 = load ptr, ptr %6, align 8
  %86 = getelementptr inbounds %struct.H5G_loc_t, ptr %85, i32 0, i32 0
  %87 = load ptr, ptr %86, align 8
  %88 = getelementptr inbounds %struct.H5O_loc_t, ptr %87, i32 0, i32 0
  %89 = load ptr, ptr %88, align 8
  %90 = load ptr, ptr %6, align 8
  %91 = getelementptr inbounds %struct.H5G_loc_t, ptr %90, i32 0, i32 0
  %92 = load ptr, ptr %91, align 8
  %93 = load ptr, ptr %7, align 8
  %94 = load i64, ptr %8, align 8
  %95 = load ptr, ptr %9, align 8
  %96 = call i32 @H5G_get_name_by_addr(ptr noundef %89, ptr noundef %92, ptr noundef %93, i64 noundef %94, ptr noundef %95)
  %97 = icmp slt i32 %96, 0
  br i1 %97, label %98, label %113

98:                                               ; preds = %84
  br label %99

99:                                               ; preds = %98
  br label %100

100:                                              ; preds = %99
  br label %101

101:                                              ; preds = %100
  %102 = load i64, ptr @H5E_SYM_g, align 8
  %103 = load i64, ptr @H5E_CANTGET_g, align 8
  %104 = call i32 (ptr, ptr, i32, i64, i64, ptr, ...) @H5E_printf_stack(ptr noundef @.str.1, ptr noundef @__func__.H5G_get_name, i32 noundef 474, i64 noundef %102, i64 noundef %103, ptr noundef @.str.4)
  br label %105

105:                                              ; preds = %101
  store i8 1, ptr %12, align 1
  %106 = load i8, ptr %12, align 1
  %107 = trunc i8 %106 to i1
  %108 = zext i1 %107 to i8
  store i8 %108, ptr %12, align 1
  br label %109

109:                                              ; preds = %105
  br label %110

110:                                              ; preds = %109
  store i32 -1, ptr %11, align 4
  br label %121

111:                                              ; No predecessors!
  br label %112

112:                                              ; preds = %111
  br label %113

113:                                              ; preds = %112, %84
  %114 = load ptr, ptr %10, align 8
  %115 = icmp ne ptr %114, null
  br i1 %115, label %116, label %118

116:                                              ; preds = %113
  %117 = load ptr, ptr %10, align 8
  store i8 0, ptr %117, align 1
  br label %118

118:                                              ; preds = %116, %113
  br label %119

119:                                              ; preds = %118, %77
  br label %120

120:                                              ; preds = %119, %76
  br label %121

121:                                              ; preds = %120, %110
  %122 = load i32, ptr %11, align 4
  ret i32 %122
}