; Function Attrs: nounwind uwtable
define range(i32 -1, 1) i32 @H5G_get_name(ptr nocapture noundef readonly %0, ptr noundef %1, i64 noundef %2, ptr noundef %3, ptr noundef writeonly %4) local_unnamed_addr #2 {
  %6 = getelementptr inbounds i8, ptr %0, i64 8
  %7 = load ptr, ptr %6, align 8
  %8 = getelementptr inbounds i8, ptr %7, i64 8
  %9 = load ptr, ptr %8, align 8
  %.not = icmp eq ptr %9, null
  %.phi.trans.insert = getelementptr inbounds i8, ptr %7, i64 16
  %.pre = load i32, ptr %.phi.trans.insert, align 8
  %10 = icmp eq i32 %.pre, 0
  br i1 %.not, label %29, label %11

11:                                               ; preds = %5
  br i1 %10, label %12, label %.thread

12:                                               ; preds = %11
  %13 = tail call i64 @H5RS_len(ptr noundef nonnull %9) #10
  %.not35 = icmp eq ptr %1, null
  br i1 %.not35, label %25, label %14

14:                                               ; preds = %12
  %15 = load ptr, ptr %6, align 8
  %16 = getelementptr inbounds i8, ptr %15, i64 8
  %17 = load ptr, ptr %16, align 8
  %18 = tail call ptr @H5RS_get_str(ptr noundef %17) #10
  %19 = add i64 %13, 1
  %20 = tail call i64 @llvm.umin.i64(i64 %19, i64 %2)
  %21 = tail call ptr @strncpy(ptr noundef nonnull %1, ptr noundef %18, i64 noundef %20) #10
  %.not36 = icmp ult i64 %13, %2
  br i1 %.not36, label %25, label %22

22:                                               ; preds = %14
  %23 = getelementptr i8, ptr %1, i64 %2
  %24 = getelementptr i8, ptr %23, i64 -1
  store i8 0, ptr %24, align 1
  br label %25

25:                                               ; preds = %14, %22, %12
  %.not37 = icmp eq ptr %3, null
  br i1 %.not37, label %27, label %26

26:                                               ; preds = %25
  store i64 %13, ptr %3, align 8
  br label %27

27:                                               ; preds = %26, %25
  %.not38 = icmp eq ptr %4, null
  br i1 %.not38, label %.thread, label %28

28:                                               ; preds = %27
  store i8 1, ptr %4, align 1
  br label %.thread

29:                                               ; preds = %5
  br i1 %10, label %30, label %.thread

30:                                               ; preds = %29
  %31 = load ptr, ptr %0, align 8
  %32 = load ptr, ptr %31, align 8
  %33 = tail call i32 @H5G_get_name_by_addr(ptr noundef %32, ptr noundef nonnull %31, ptr noundef %1, i64 noundef %2, ptr noundef %3)
  %34 = icmp slt i32 %33, 0
  br i1 %34, label %35, label %39

35:                                               ; preds = %30
  %36 = load i64, ptr @H5E_SYM_g, align 8
  %37 = load i64, ptr @H5E_CANTGET_g, align 8
  %38 = tail call i32 (ptr, ptr, i32, i64, i64, ptr, ...) @H5E_printf_stack(ptr noundef nonnull @.str.1, ptr noundef nonnull @__func__.H5G_get_name, i32 noundef 474, i64 noundef %36, i64 noundef %37, ptr noundef nonnull @.str.4) #10
  br label %.thread

39:                                               ; preds = %30
  %.not34 = icmp eq ptr %4, null
  br i1 %.not34, label %.thread, label %40

40:                                               ; preds = %39
  store i8 0, ptr %4, align 1
  br label %.thread

.thread:                                          ; preds = %11, %28, %27, %39, %40, %29, %35
  %.0 = phi i32 [ 0, %28 ], [ 0, %27 ], [ 0, %29 ], [ -1, %35 ], [ 0, %40 ], [ 0, %39 ], [ 0, %11 ]
  ret i32 %.0
}